; Function Attrs: mustprogress nofree norecurse nosync nounwind willreturn memory(read, inaccessiblemem: none) uwtable
define hidden noundef ptr @_ZN12URShiftLNode8IdentityEP8PhaseGVN(ptr noundef nonnull readonly align 8 dereferenceable(52) %0, ptr nocapture noundef readonly %1) unnamed_addr #6 align 2 {
  %3 = getelementptr i8, ptr %1, i64 40
  %.val = load ptr, ptr %3, align 8
  %4 = getelementptr inbounds i8, ptr %0, i64 8
  %.val3 = load ptr, ptr %4, align 8
  %5 = getelementptr i8, ptr %.val, i64 16
  %.val.val = load ptr, ptr %5, align 8
  %6 = getelementptr i8, ptr %.val3, i64 16
  %.val3.val = load ptr, ptr %6, align 8
  %7 = getelementptr i8, ptr %.val3.val, i64 40
  %.val3.val.val = load i32, ptr %7, align 8
  %8 = zext i32 %.val3.val.val to i64
  %9 = getelementptr inbounds ptr, ptr %.val.val, i64 %8
  %10 = load ptr, ptr %9, align 8
  %11 = getelementptr inbounds i8, ptr %10, i64 16
  %12 = load i32, ptr %11, align 8
  %13 = icmp ne i32 %12, 3
  %.not1.i = icmp eq ptr %10, null
  %.not.i = or i1 %.not1.i, %13
  br i1 %.not.i, label %_ZL17const_shift_countP8PhaseGVNP4NodePi.exit.thread, label %14

14:                                               ; preds = %2
  %15 = getelementptr inbounds i8, ptr %10, i64 24
  %16 = load i32, ptr %15, align 8
  %17 = getelementptr inbounds i8, ptr %10, i64 28
  %18 = load i32, ptr %17, align 4
  %19 = icmp eq i32 %16, %18
  %20 = and i32 %16, 63
  %21 = icmp eq i32 %20, 0
  %or.cond = and i1 %19, %21
  br i1 %or.cond, label %22, label %_ZL17const_shift_countP8PhaseGVNP4NodePi.exit.thread

22:                                               ; preds = %14
  %23 = getelementptr inbounds i8, ptr %.val3, i64 8
  %24 = load ptr, ptr %23, align 8
  br label %_ZL17const_shift_countP8PhaseGVNP4NodePi.exit.thread

_ZL17const_shift_countP8PhaseGVNP4NodePi.exit.thread: ; preds = %2, %14, %22
  %.0 = phi ptr [ %24, %22 ], [ %0, %14 ], [ %0, %2 ]
  ret ptr %.0
}